Certificate:
    Data:
        Version: 3 (0x2)
        Serial Number: 1 (0x1)
    Signature Algorithm: sha256WithRSAEncryption
        Issuer: CN=vpn.test.com
        Validity
            Not Before: Mar 16 03:38:24 2018 GMT
            Not After : Mar 13 03:38:24 2028 GMT
        Subject: CN=vpn.test.com
        Subject Public Key Info:
            Public Key Algorithm: rsaEncryption
                Public-Key: (2048 bit)
                Modulus:
                    00:d6:6d:61:a8:3c:2b:df:a5:a4:c4:92:0a:b8:ea:
                    61:d2:72:01:2a:aa:ef:a8:7d:1e:39:ad:c6:c2:4e:
                    c8:07:eb:90:e8:82:9b:4f:80:72:90:3e:0a:e6:50:
                    10:bc:ce:30:e3:d0:0c:c5:a4:8d:30:b6:57:2d:5d:
                    00:19:ca:74:c5:f0:4b:1f:fc:b9:6d:ed:86:f8:b6:
                    91:b6:fb:0c:45:7e:6f:28:20:dd:94:42:e7:d1:6c:
                    a4:12:b3:0e:c6:77:b8:b1:7f:6f:73:2f:04:6c:a5:
                    87:a9:5c:9d:31:ae:1e:ea:9a:aa:7d:c5:f1:12:69:
                    d9:45:e9:ce:e1:b5:fa:da:4f:e2:22:4f:34:1f:b9:
                    4a:f4:ca:5a:c7:55:c2:a3:5b:18:b5:d4:ca:94:fe:
                    84:56:a2:1d:12:dc:e0:79:d3:83:be:87:22:6a:1c:
                    b9:c3:4b:ee:d4:ba:d9:74:0c:62:08:63:70:ae:e0:
                    5d:27:16:04:90:fb:dd:19:5a:ba:a2:bc:56:43:b5:
                    8b:32:c1:e9:63:6f:c0:76:c4:61:71:5d:29:73:a0:
                    31:b9:27:a4:e8:bb:fb:84:00:66:3b:97:06:70:bf:
                    fe:aa:c8:97:51:b1:ae:61:9a:24:e1:da:dc:8b:8a:
                    09:9d:3d:17:25:dd:7c:b3:30:55:a6:b3:d0:2e:f8:
                    2c:4f
                Exponent: 65537 (0x10001)
        X509v3 extensions:
            X509v3 Basic Constraints: 
                CA:FALSE
            X509v3 Subject Key Identifier: 
                A3:86:E0:99:97:75:26:C9:AC:22:C1:F4:16:9A:5C:6A:FF:81:57:BD
            X509v3 Authority Key Identifier: 
                keyid:E7:EB:0D:EE:76:8E:B3:06:12:DE:22:D4:9D:3E:70:98:F3:0A:9A:D9
                DirName:/CN=vpn.test.com
                serial:D5:30:B2:38:F8:3B:61:79

            X509v3 Extended Key Usage: 
                TLS Web Server Authentication
            X509v3 Key Usage: 
                Digital Signature, Key Encipherment
    Signature Algorithm: sha256WithRSAEncryption
         77:d6:1c:c1:04:a4:bf:c2:ec:6c:a2:8e:31:44:0f:63:15:22:
         18:20:05:9d:86:ad:77:62:61:98:93:06:0a:81:66:62:6a:b1:
         81:66:93:2d:32:d1:41:1b:bb:5f:9c:fc:ab:8b:4f:d8:4f:76:
         8f:cd:15:0d:08:7e:40:34:9b:67:fa:13:d0:3a:4e:ea:c3:42:
         3c:ee:e5:3d:6a:9d:c5:9b:dc:07:ae:9d:61:f3:e6:c4:c4:0d:
         c5:5d:c1:bb:2b:aa:fd:36:0a:f9:7a:90:63:93:94:ee:ba:fe:
         48:79:86:fd:dd:1c:85:50:fe:2e:99:46:1e:ba:93:42:bd:cf:
         ab:54:43:80:06:b0:2f:76:2c:2b:7e:4a:63:0a:df:8b:7e:52:
         a2:18:14:e1:8d:a9:e4:cd:8c:13:fd:de:f7:f8:a7:d8:56:4e:
         a5:69:a8:3b:bd:98:42:0d:dd:0d:6c:03:f5:ce:1d:85:ec:91:
         52:02:f9:2e:18:d7:73:63:29:a6:c8:62:de:65:24:e2:9b:b0:
         7e:a0:14:24:a7:15:96:05:04:a1:88:b4:4a:2e:5d:4c:b4:a5:
         57:09:5c:00:6c:5a:de:8e:b3:58:b1:54:66:5d:fd:40:43:db:
         bc:92:88:bc:55:dc:95:20:c1:d7:88:20:34:6f:a7:e2:53:10:
         67:a0:95:4b
-----BEGIN CERTIFICATE-----
MIIDQjCCAiqgAwIBAgIBATANBgkqhkiG9w0BAQsFADAXMRUwEwYDVQQDDAx2cG4u
dGVzdC5jb20wHhcNMTgwMzE2MDMzODI0WhcNMjgwMzEzMDMzODI0WjAXMRUwEwYD
VQQDDAx2cG4udGVzdC5jb20wggEiMA0GCSqGSIb3DQEBAQUAA4IBDwAwggEKAoIB
AQDWbWGoPCvfpaTEkgq46mHScgEqqu+ofR45rcbCTsgH65DogptPgHKQPgrmUBC8
zjDj0AzFpI0wtlctXQAZynTF8Esf/Llt7Yb4tpG2+wxFfm8oIN2UQufRbKQSsw7G
d7ixf29zLwRspYepXJ0xrh7qmqp9xfESadlF6c7htfraT+IiTzQfuUr0ylrHVcKj
Wxi11MqU/oRWoh0S3OB504O+hyJqHLnDS+7Uutl0DGIIY3Cu4F0nFgSQ+90ZWrqi
vFZDtYsyweljb8B2xGFxXSlzoDG5J6Tou/uEAGY7lwZwv/6qyJdRsa5hmiTh2tyL
igmdPRcl3XyzMFWms9Au+CxPAgMBAAGjgZgwgZUwCQYDVR0TBAIwADAdBgNVHQ4E
FgQUo4bgmZd1JsmsIsH0Fppcav+BV70wRwYDVR0jBEAwPoAU5+sN7naOswYS3iLU
nT5wmPMKmtmhG6QZMBcxFTATBgNVBAMMDHZwbi50ZXN0LmNvbYIJANUwsjj4O2F5
MBMGA1UdJQQMMAoGCCsGAQUFBwMBMAsGA1UdDwQEAwIFoDANBgkqhkiG9w0BAQsF
AAOCAQEAd9YcwQSkv8LsbKKOMUQPYxUiGCAFnYatd2JhmJMGCoFmYmqxgWaTLTLR
QRu7X5z8q4tP2E92j80VDQh+QDSbZ/oT0DpO6sNCPO7lPWqdxZvcB66dYfPmxMQN
xV3Buyuq/TYK+XqQY5OU7rr+SHmG/d0chVD+LplGHrqTQr3Pq1RDgAawL3YsK35K
Ywrfi35SohgU4Y2p5M2ME/3e9/in2FZOpWmoO72YQg3dDWwD9c4dheyRUgL5LhjX
c2Mppshi3mUk4puwfqAUJKcVlgUEoYi0Si5dTLSlVwlcAGxa3o6zWLFUZl39QEPb
vJKIvFXclSDB14ggNG+n4lMQZ6CVSw==
-----END CERTIFICATE-----
